target datalayout = "e-m:e-p270:32:32-p271:32:32-p272:64:64-i64:64-i128:128-f80:128-n8:16:32:64-S128"
target triple = "x86_64-pc-linux-gnu"

%"class.OpenSubdiv::v3_6_0::Bfr::FaceSurface" = type <{ ptr, ptr, %"class.OpenSubdiv::v3_6_0::Vtr::internal::StackBuffer.0", %"class.OpenSubdiv::v3_6_0::Bfr::MultiVertexTag", %"class.OpenSubdiv::v3_6_0::Sdc::Options", i8, i8 }>
%"class.OpenSubdiv::v3_6_0::Vtr::internal::StackBuffer.0" = type { ptr, i32, i32, [96 x i8], ptr }
%"class.OpenSubdiv::v3_6_0::Bfr::MultiVertexTag" = type { %"class.OpenSubdiv::v3_6_0::Bfr::FeatureBits" }
%"class.OpenSubdiv::v3_6_0::Bfr::FeatureBits" = type { i16 }
%"class.OpenSubdiv::v3_6_0::Sdc::Options" = type { i8, i8, i8, i8 }
%"class.OpenSubdiv::v3_6_0::Bfr::FaceTopology" = type { i32, %"class.OpenSubdiv::v3_6_0::Sdc::Options", i32, i32, i32, %"class.OpenSubdiv::v3_6_0::Bfr::MultiVertexTag", i8, %"class.OpenSubdiv::v3_6_0::Vtr::internal::StackBuffer" }
%"class.OpenSubdiv::v3_6_0::Vtr::internal::StackBuffer" = type { ptr, i32, i32, [896 x i8], ptr }
%"struct.OpenSubdiv::v3_6_0::Bfr::FaceVertexSubset" = type { %"class.OpenSubdiv::v3_6_0::Bfr::VertexTag", i16, i16, i16, float }
%"class.OpenSubdiv::v3_6_0::Bfr::VertexTag" = type { %"class.OpenSubdiv::v3_6_0::Bfr::FeatureBits" }

; Function Attrs: mustprogress nounwind uwtable
define linkonce_odr noundef i32 @_ZNK10OpenSubdiv6v3_6_03Bfr12FaceTopology11GetFaceSizeEv(ptr noundef nonnull align 8 dereferenceable(944) %0) #1 comdat align 2 {
  %2 = alloca ptr, align 8
  store ptr %0, ptr %2, align 8
  %3 = load ptr, ptr %2, align 8
  %4 = getelementptr inbounds nuw %"class.OpenSubdiv::v3_6_0::Bfr::FaceTopology", ptr %3, i32 0, i32 2
  %5 = load i32, ptr %4, align 8
  ret i32 %5
}

; Function Attrs: mustprogress nounwind uwtable
define linkonce_odr noundef i32 @_ZNK10OpenSubdiv6v3_6_03Bfr12FaceTopology14GetRegFaceSizeEv(ptr noundef nonnull align 8 dereferenceable(944) %0) #1 comdat align 2 {
  %2 = alloca ptr, align 8
  store ptr %0, ptr %2, align 8
  %3 = load ptr, ptr %2, align 8
  %4 = getelementptr inbounds nuw %"class.OpenSubdiv::v3_6_0::Bfr::FaceTopology", ptr %3, i32 0, i32 3
  %5 = load i32, ptr %4, align 4
  ret i32 %5
}

; Function Attrs: mustprogress nounwind uwtable
define linkonce_odr noundef zeroext i1 @_ZNK10OpenSubdiv6v3_6_03Bfr14MultiVertexTag17HasSemiSharpEdgesEv(ptr noundef nonnull align 2 dereferenceable(2) %0) #1 comdat align 2 {
  %2 = alloca ptr, align 8
  store ptr %0, ptr %2, align 8
  %3 = load ptr, ptr %2, align 8
  %4 = load i16, ptr %3, align 2
  %5 = lshr i16 %4, 5
  %6 = and i16 %5, 1
  %7 = icmp ne i16 %6, 0
  ret i1 %7
}

; Function Attrs: mustprogress nounwind uwtable
define linkonce_odr noundef zeroext i1 @_ZNK10OpenSubdiv6v3_6_03Bfr14MultiVertexTag16HasInfSharpEdgesEv(ptr noundef nonnull align 2 dereferenceable(2) %0) #1 comdat align 2 {
  %2 = alloca ptr, align 8
  store ptr %0, ptr %2, align 8
  %3 = load ptr, ptr %2, align 8
  %4 = load i16, ptr %3, align 2
  %5 = lshr i16 %4, 2
  %6 = and i16 %5, 1
  %7 = icmp ne i16 %6, 0
  ret i1 %7
}

; Function Attrs: mustprogress nounwind uwtable
define linkonce_odr noundef zeroext i1 @_ZNK10OpenSubdiv6v3_6_03Bfr16FaceVertexSubset10IsBoundaryEv(ptr noundef nonnull align 4 dereferenceable(12) %0) #1 comdat align 2 {
  %2 = alloca ptr, align 8
  store ptr %0, ptr %2, align 8
  %3 = load ptr, ptr %2, align 8
  %4 = getelementptr inbounds nuw %"struct.OpenSubdiv::v3_6_0::Bfr::FaceVertexSubset", ptr %3, i32 0, i32 0
  %5 = load i16, ptr %4, align 4
  %6 = and i16 %5, 1
  %7 = icmp ne i16 %6, 0
  ret i1 %7
}

; Function Attrs: mustprogress nounwind uwtable
define linkonce_odr noundef zeroext i1 @_ZNK10OpenSubdiv6v3_6_03Bfr16FaceVertexSubset7IsSharpEv(ptr noundef nonnull align 4 dereferenceable(12) %0) #1 comdat align 2 {
  %2 = alloca ptr, align 8
  store ptr %0, ptr %2, align 8
  %3 = load ptr, ptr %2, align 8
  %4 = getelementptr inbounds nuw %"struct.OpenSubdiv::v3_6_0::Bfr::FaceVertexSubset", ptr %3, i32 0, i32 0
  %5 = load i16, ptr %4, align 4
  %6 = lshr i16 %5, 1
  %7 = and i16 %6, 1
  %8 = icmp ne i16 %7, 0
  ret i1 %8
}

; Function Attrs: mustprogress uwtable
define linkonce_odr noundef i32 @_ZNK10OpenSubdiv6v3_6_03Bfr11FaceSurface11GetFaceSizeEv(ptr noundef nonnull align 8 dereferenceable(143) %0) #0 comdat align 2 {
  %2 = alloca ptr, align 8
  store ptr %0, ptr %2, align 8
  %3 = load ptr, ptr %2, align 8
  %4 = getelementptr inbounds nuw %"class.OpenSubdiv::v3_6_0::Bfr::FaceSurface", ptr %3, i32 0, i32 0
  %5 = load ptr, ptr %4, align 8
  %6 = call noundef i32 @_ZNK10OpenSubdiv6v3_6_03Bfr12FaceTopology11GetFaceSizeEv(ptr noundef nonnull align 8 dereferenceable(944) %5)
  ret i32 %6
}

; Function Attrs: mustprogress nounwind uwtable
define linkonce_odr noundef i32 @_ZNK10OpenSubdiv6v3_6_03Bfr16FaceVertexSubset11GetNumFacesEv(ptr noundef nonnull align 4 dereferenceable(12) %0) #1 comdat align 2 {
  %2 = alloca ptr, align 8
  store ptr %0, ptr %2, align 8
  %3 = load ptr, ptr %2, align 8
  %4 = getelementptr inbounds nuw %"struct.OpenSubdiv::v3_6_0::Bfr::FaceVertexSubset", ptr %3, i32 0, i32 3
  %5 = load i16, ptr %4, align 2
  %6 = sext i16 %5 to i32
  ret i32 %6
}

; Function Attrs: mustprogress nounwind uwtable
define linkonce_odr noundef ptr @_ZNK10OpenSubdiv6v3_6_03Vtr8internal11StackBufferINS0_3Bfr16FaceVertexSubsetELj8ELb1EEcvPKS5_Ev(ptr noundef nonnull align 8 dereferenceable(120) %0) #1 comdat align 2 {
  %2 = alloca ptr, align 8
  store ptr %0, ptr %2, align 8
  %3 = load ptr, ptr %2, align 8
  %4 = getelementptr inbounds nuw %"class.OpenSubdiv::v3_6_0::Vtr::internal::StackBuffer.0", ptr %3, i32 0, i32 0
  %5 = load ptr, ptr %4, align 8
  ret ptr %5
}

; Function Attrs: mustprogress uwtable
define linkonce_odr noundef i32 @_ZNK10OpenSubdiv6v3_6_03Bfr11FaceSurface14GetRegFaceSizeEv(ptr noundef nonnull align 8 dereferenceable(143) %0) #0 comdat align 2 {
  %2 = alloca ptr, align 8
  store ptr %0, ptr %2, align 8
  %3 = load ptr, ptr %2, align 8
  %4 = getelementptr inbounds nuw %"class.OpenSubdiv::v3_6_0::Bfr::FaceSurface", ptr %3, i32 0, i32 0
  %5 = load ptr, ptr %4, align 8
  %6 = call noundef i32 @_ZNK10OpenSubdiv6v3_6_03Bfr12FaceTopology14GetRegFaceSizeEv(ptr noundef nonnull align 8 dereferenceable(944) %5)
  ret i32 %6
}

; Function Attrs: mustprogress nounwind uwtable
define linkonce_odr noundef zeroext i1 @_ZNK10OpenSubdiv6v3_6_03Bfr14MultiVertexTag19HasInfSharpVerticesEv(ptr noundef nonnull align 2 dereferenceable(2) %0) #1 comdat align 2 {
  %2 = alloca ptr, align 8
  store ptr %0, ptr %2, align 8
  %3 = load ptr, ptr %2, align 8
  %4 = load i16, ptr %3, align 2
  %5 = lshr i16 %4, 1
  %6 = and i16 %5, 1
  %7 = icmp ne i16 %6, 0
  ret i1 %7
}

; Function Attrs: mustprogress nounwind uwtable
define linkonce_odr noundef zeroext i1 @_ZNK10OpenSubdiv6v3_6_03Bfr14MultiVertexTag19HasBoundaryVerticesEv(ptr noundef nonnull align 2 dereferenceable(2) %0) #1 comdat align 2 {
  %2 = alloca ptr, align 8
  store ptr %0, ptr %2, align 8
  %3 = load ptr, ptr %2, align 8
  %4 = load i16, ptr %3, align 2
  %5 = and i16 %4, 1
  %6 = icmp ne i16 %5, 0
  ret i1 %6
}

; Function Attrs: mustprogress nounwind uwtable
define linkonce_odr noundef zeroext i1 @_ZNK10OpenSubdiv6v3_6_03Bfr14MultiVertexTag21HasIrregularFaceSizesEv(ptr noundef nonnull align 2 dereferenceable(2) %0) #1 comdat align 2 {
  %2 = alloca ptr, align 8
  store ptr %0, ptr %2, align 8
  %3 = load ptr, ptr %2, align 8
  %4 = load i16, ptr %3, align 2
  %5 = lshr i16 %4, 7
  %6 = and i16 %5, 1
  %7 = icmp ne i16 %6, 0
  ret i1 %7
}

; Function Attrs: mustprogress nounwind uwtable
define linkonce_odr noundef zeroext i1 @_ZNK10OpenSubdiv6v3_6_03Bfr14MultiVertexTag20HasSemiSharpVerticesEv(ptr noundef nonnull align 2 dereferenceable(2) %0) #1 comdat align 2 {
  %2 = alloca ptr, align 8
  store ptr %0, ptr %2, align 8
  %3 = load ptr, ptr %2, align 8
  %4 = load i16, ptr %3, align 2
  %5 = lshr i16 %4, 4
  %6 = and i16 %5, 1
  %7 = icmp ne i16 %6, 0
  ret i1 %7
}

; Function Attrs: mustprogress uwtable
define linkonce_odr noundef zeroext i1 @_ZNK10OpenSubdiv6v3_6_03Bfr14MultiVertexTag13HasSharpEdgesEv(ptr noundef nonnull align 2 dereferenceable(2) %0) #0 comdat align 2 {
  %2 = alloca ptr, align 8
  store ptr %0, ptr %2, align 8
  %3 = load ptr, ptr %2, align 8
  %4 = call noundef zeroext i1 @_ZNK10OpenSubdiv6v3_6_03Bfr14MultiVertexTag16HasInfSharpEdgesEv(ptr noundef nonnull align 2 dereferenceable(2) %3)
  br i1 %4, label %7, label %5

5:                                                ; preds = %1
  %6 = call noundef zeroext i1 @_ZNK10OpenSubdiv6v3_6_03Bfr14MultiVertexTag17HasSemiSharpEdgesEv(ptr noundef nonnull align 2 dereferenceable(2) %3)
  br label %7

7:                                                ; preds = %5, %1
  %8 = phi i1 [ true, %1 ], [ %6, %5 ]
  ret i1 %8
}

; Function Attrs: mustprogress uwtable
define noundef zeroext i1 @_ZNK10OpenSubdiv6v3_6_03Bfr11FaceSurface9isRegularEv(ptr noundef nonnull align 8 dereferenceable(143) %0) #0 align 2 {
  %2 = alloca i1, align 1
  %3 = alloca ptr, align 8
  %4 = alloca i32, align 4
  %5 = alloca i32, align 4
  %6 = alloca i32, align 4
  %7 = alloca ptr, align 8
  store ptr %0, ptr %3, align 8
  %8 = load ptr, ptr %3, align 8
  %9 = getelementptr inbounds nuw %"class.OpenSubdiv::v3_6_0::Bfr::FaceSurface", ptr %8, i32 0, i32 3
  %10 = call noundef zeroext i1 @_ZNK10OpenSubdiv6v3_6_03Bfr14MultiVertexTag13HasSharpEdgesEv(ptr noundef nonnull align 2 dereferenceable(2) %9)
  br i1 %10, label %17, label %11

11:                                               ; preds = %1
  %12 = getelementptr inbounds nuw %"class.OpenSubdiv::v3_6_0::Bfr::FaceSurface", ptr %8, i32 0, i32 3
  %13 = call noundef zeroext i1 @_ZNK10OpenSubdiv6v3_6_03Bfr14MultiVertexTag20HasSemiSharpVerticesEv(ptr noundef nonnull align 2 dereferenceable(2) %12)
  br i1 %13, label %17, label %14

14:                                               ; preds = %11
  %15 = getelementptr inbounds nuw %"class.OpenSubdiv::v3_6_0::Bfr::FaceSurface", ptr %8, i32 0, i32 3
  %16 = call noundef zeroext i1 @_ZNK10OpenSubdiv6v3_6_03Bfr14MultiVertexTag21HasIrregularFaceSizesEv(ptr noundef nonnull align 2 dereferenceable(2) %15)
  br i1 %16, label %17, label %18

17:                                               ; preds = %14, %11, %1
  store i1 false, ptr %2, align 1
  br label %116

18:                                               ; preds = %14
  %19 = getelementptr inbounds nuw %"class.OpenSubdiv::v3_6_0::Bfr::FaceSurface", ptr %8, i32 0, i32 3
  %20 = call noundef zeroext i1 @_ZNK10OpenSubdiv6v3_6_03Bfr14MultiVertexTag19HasBoundaryVerticesEv(ptr noundef nonnull align 2 dereferenceable(2) %19)
  br i1 %20, label %69, label %21

21:                                               ; preds = %18
  %22 = getelementptr inbounds nuw %"class.OpenSubdiv::v3_6_0::Bfr::FaceSurface", ptr %8, i32 0, i32 3
  %23 = call noundef zeroext i1 @_ZNK10OpenSubdiv6v3_6_03Bfr14MultiVertexTag19HasInfSharpVerticesEv(ptr noundef nonnull align 2 dereferenceable(2) %22)
  br i1 %23, label %24, label %25

24:                                               ; preds = %21
  store i1 false, ptr %2, align 1
  br label %116

25:                                               ; preds = %21
  %26 = call noundef i32 @_ZNK10OpenSubdiv6v3_6_03Bfr11FaceSurface14GetRegFaceSizeEv(ptr noundef nonnull align 8 dereferenceable(143) %8)
  %27 = icmp eq i32 %26, 4
  br i1 %27, label %28, label %49

28:                                               ; preds = %25
  %29 = getelementptr inbounds nuw %"class.OpenSubdiv::v3_6_0::Bfr::FaceSurface", ptr %8, i32 0, i32 2
  %30 = call noundef ptr @_ZNK10OpenSubdiv6v3_6_03Vtr8internal11StackBufferINS0_3Bfr16FaceVertexSubsetELj8ELb1EEcvPKS5_Ev(ptr noundef nonnull align 8 dereferenceable(120) %29)
  %31 = getelementptr inbounds %"struct.OpenSubdiv::v3_6_0::Bfr::FaceVertexSubset", ptr %30, i64 0
  %32 = call noundef i32 @_ZNK10OpenSubdiv6v3_6_03Bfr16FaceVertexSubset11GetNumFacesEv(ptr noundef nonnull align 4 dereferenceable(12) %31)
  %33 = getelementptr inbounds nuw %"class.OpenSubdiv::v3_6_0::Bfr::FaceSurface", ptr %8, i32 0, i32 2
  %34 = call noundef ptr @_ZNK10OpenSubdiv6v3_6_03Vtr8internal11StackBufferINS0_3Bfr16FaceVertexSubsetELj8ELb1EEcvPKS5_Ev(ptr noundef nonnull align 8 dereferenceable(120) %33)
  %35 = getelementptr inbounds %"struct.OpenSubdiv::v3_6_0::Bfr::FaceVertexSubset", ptr %34, i64 1
  %36 = call noundef i32 @_ZNK10OpenSubdiv6v3_6_03Bfr16FaceVertexSubset11GetNumFacesEv(ptr noundef nonnull align 4 dereferenceable(12) %35)
  %37 = or i32 %32, %36
  %38 = getelementptr inbounds nuw %"class.OpenSubdiv::v3_6_0::Bfr::FaceSurface", ptr %8, i32 0, i32 2
  %39 = call noundef ptr @_ZNK10OpenSubdiv6v3_6_03Vtr8internal11StackBufferINS0_3Bfr16FaceVertexSubsetELj8ELb1EEcvPKS5_Ev(ptr noundef nonnull align 8 dereferenceable(120) %38)
  %40 = getelementptr inbounds %"struct.OpenSubdiv::v3_6_0::Bfr::FaceVertexSubset", ptr %39, i64 2
  %41 = call noundef i32 @_ZNK10OpenSubdiv6v3_6_03Bfr16FaceVertexSubset11GetNumFacesEv(ptr noundef nonnull align 4 dereferenceable(12) %40)
  %42 = or i32 %37, %41
  %43 = getelementptr inbounds nuw %"class.OpenSubdiv::v3_6_0::Bfr::FaceSurface", ptr %8, i32 0, i32 2
  %44 = call noundef ptr @_ZNK10OpenSubdiv6v3_6_03Vtr8internal11StackBufferINS0_3Bfr16FaceVertexSubsetELj8ELb1EEcvPKS5_Ev(ptr noundef nonnull align 8 dereferenceable(120) %43)
  %45 = getelementptr inbounds %"struct.OpenSubdiv::v3_6_0::Bfr::FaceVertexSubset", ptr %44, i64 3
  %46 = call noundef i32 @_ZNK10OpenSubdiv6v3_6_03Bfr16FaceVertexSubset11GetNumFacesEv(ptr noundef nonnull align 4 dereferenceable(12) %45)
  %47 = or i32 %42, %46
  %48 = icmp eq i32 %47, 4
  store i1 %48, ptr %2, align 1
  br label %116

49:                                               ; preds = %25
  %50 = getelementptr inbounds nuw %"class.OpenSubdiv::v3_6_0::Bfr::FaceSurface", ptr %8, i32 0, i32 2
  %51 = call noundef ptr @_ZNK10OpenSubdiv6v3_6_03Vtr8internal11StackBufferINS0_3Bfr16FaceVertexSubsetELj8ELb1EEcvPKS5_Ev(ptr noundef nonnull align 8 dereferenceable(120) %50)
  %52 = getelementptr inbounds %"struct.OpenSubdiv::v3_6_0::Bfr::FaceVertexSubset", ptr %51, i64 0
  %53 = call noundef i32 @_ZNK10OpenSubdiv6v3_6_03Bfr16FaceVertexSubset11GetNumFacesEv(ptr noundef nonnull align 4 dereferenceable(12) %52)
  %54 = icmp eq i32 %53, 6
  br i1 %54, label %55, label %67

55:                                               ; preds = %49
  %56 = getelementptr inbounds nuw %"class.OpenSubdiv::v3_6_0::Bfr::FaceSurface", ptr %8, i32 0, i32 2
  %57 = call noundef ptr @_ZNK10OpenSubdiv6v3_6_03Vtr8internal11StackBufferINS0_3Bfr16FaceVertexSubsetELj8ELb1EEcvPKS5_Ev(ptr noundef nonnull align 8 dereferenceable(120) %56)
  %58 = getelementptr inbounds %"struct.OpenSubdiv::v3_6_0::Bfr::FaceVertexSubset", ptr %57, i64 1
  %59 = call noundef i32 @_ZNK10OpenSubdiv6v3_6_03Bfr16FaceVertexSubset11GetNumFacesEv(ptr noundef nonnull align 4 dereferenceable(12) %58)
  %60 = icmp eq i32 %59, 6
  br i1 %60, label %61, label %67

61:                                               ; preds = %55
  %62 = getelementptr inbounds nuw %"class.OpenSubdiv::v3_6_0::Bfr::FaceSurface", ptr %8, i32 0, i32 2
  %63 = call noundef ptr @_ZNK10OpenSubdiv6v3_6_03Vtr8internal11StackBufferINS0_3Bfr16FaceVertexSubsetELj8ELb1EEcvPKS5_Ev(ptr noundef nonnull align 8 dereferenceable(120) %62)
  %64 = getelementptr inbounds %"struct.OpenSubdiv::v3_6_0::Bfr::FaceVertexSubset", ptr %63, i64 2
  %65 = call noundef i32 @_ZNK10OpenSubdiv6v3_6_03Bfr16FaceVertexSubset11GetNumFacesEv(ptr noundef nonnull align 4 dereferenceable(12) %64)
  %66 = icmp eq i32 %65, 6
  br label %67

67:                                               ; preds = %61, %55, %49
  %68 = phi i1 [ false, %55 ], [ false, %49 ], [ %66, %61 ]
  store i1 %68, ptr %2, align 1
  br label %116

69:                                               ; preds = %18
  %70 = call noundef i32 @_ZNK10OpenSubdiv6v3_6_03Bfr11FaceSurface14GetRegFaceSizeEv(ptr noundef nonnull align 8 dereferenceable(143) %8)
  %71 = icmp eq i32 %70, 4
  %72 = select i1 %71, i32 4, i32 6
  store i32 %72, ptr %4, align 4
  %73 = load i32, ptr %4, align 4
  %74 = sdiv i32 %73, 2
  store i32 %74, ptr %5, align 4
  store i32 0, ptr %6, align 4
  br label %75

75:                                               ; preds = %112, %69
  %76 = load i32, ptr %6, align 4
  %77 = call noundef i32 @_ZNK10OpenSubdiv6v3_6_03Bfr11FaceSurface11GetFaceSizeEv(ptr noundef nonnull align 8 dereferenceable(143) %8)
  %78 = icmp slt i32 %76, %77
  br i1 %78, label %79, label %115

79:                                               ; preds = %75
  %80 = getelementptr inbounds nuw %"class.OpenSubdiv::v3_6_0::Bfr::FaceSurface", ptr %8, i32 0, i32 2
  %81 = call noundef ptr @_ZNK10OpenSubdiv6v3_6_03Vtr8internal11StackBufferINS0_3Bfr16FaceVertexSubsetELj8ELb1EEcvPKS5_Ev(ptr noundef nonnull align 8 dereferenceable(120) %80)
  %82 = load i32, ptr %6, align 4
  %83 = sext i32 %82 to i64
  %84 = getelementptr inbounds %"struct.OpenSubdiv::v3_6_0::Bfr::FaceVertexSubset", ptr %81, i64 %83
  store ptr %84, ptr %7, align 8
  %85 = load ptr, ptr %7, align 8
  %86 = call noundef zeroext i1 @_ZNK10OpenSubdiv6v3_6_03Bfr16FaceVertexSubset7IsSharpEv(ptr noundef nonnull align 4 dereferenceable(12) %85)
  br i1 %86, label %87, label %93

87:                                               ; preds = %79
  %88 = load ptr, ptr %7, align 8
  %89 = call noundef i32 @_ZNK10OpenSubdiv6v3_6_03Bfr16FaceVertexSubset11GetNumFacesEv(ptr noundef nonnull align 4 dereferenceable(12) %88)
  %90 = icmp ne i32 %89, 1
  br i1 %90, label %91, label %92

91:                                               ; preds = %87
  store i1 false, ptr %2, align 1
  br label %116

92:                                               ; preds = %87
  br label %111

93:                                               ; preds = %79
  %94 = load ptr, ptr %7, align 8
  %95 = call noundef zeroext i1 @_ZNK10OpenSubdiv6v3_6_03Bfr16FaceVertexSubset10IsBoundaryEv(ptr noundef nonnull align 4 dereferenceable(12) %94)
  br i1 %95, label %96, label %103

96:                                               ; preds = %93
  %97 = load ptr, ptr %7, align 8
  %98 = call noundef i32 @_ZNK10OpenSubdiv6v3_6_03Bfr16FaceVertexSubset11GetNumFacesEv(ptr noundef nonnull align 4 dereferenceable(12) %97)
  %99 = load i32, ptr %5, align 4
  %100 = icmp ne i32 %98, %99
  br i1 %100, label %101, label %102

101:                                              ; preds = %96
  store i1 false, ptr %2, align 1
  br label %116

102:                                              ; preds = %96
  br label %110

103:                                              ; preds = %93
  %104 = load ptr, ptr %7, align 8
  %105 = call noundef i32 @_ZNK10OpenSubdiv6v3_6_03Bfr16FaceVertexSubset11GetNumFacesEv(ptr noundef nonnull align 4 dereferenceable(12) %104)
  %106 = load i32, ptr %4, align 4
  %107 = icmp ne i32 %105, %106
  br i1 %107, label %108, label %109

108:                                              ; preds = %103
  store i1 false, ptr %2, align 1
  br label %116

109:                                              ; preds = %103
  br label %110

110:                                              ; preds = %109, %102
  br label %111

111:                                              ; preds = %110, %92
  br label %112

112:                                              ; preds = %111
  %113 = load i32, ptr %6, align 4
  %114 = add nsw i32 %113, 1
  store i32 %114, ptr %6, align 4
  br label %75, !llvm.loop !5

115:                                              ; preds = %75
  store i1 true, ptr %2, align 1
  br label %116

116:                                              ; preds = %115, %108, %101, %91, %67, %28, %24, %17
  %117 = load i1, ptr %2, align 1
  ret i1 %117
}