; Function Attrs: mustprogress nofree norecurse nosync nounwind willreturn memory(read, inaccessiblemem: none) uwtable
define noundef zeroext i1 @_ZNK10OpenSubdiv6v3_6_03Bfr11FaceSurface9isRegularEv(ptr nocapture noundef nonnull readonly align 8 dereferenceable(143) %0) local_unnamed_addr #4 align 2 {
  %2 = getelementptr inbounds nuw i8, ptr %0, i64 136
  %3 = load i16, ptr %2, align 8
  %4 = and i16 %3, 180
  %or.cond17.not = icmp eq i16 %4, 0
  br i1 %or.cond17.not, label %5, label %.loopexit

5:                                                ; preds = %1
  %6 = and i16 %3, 1
  %.not18 = icmp eq i16 %6, 0
  br i1 %.not18, label %7, label %39

7:                                                ; preds = %5
  %8 = and i16 %3, 2
  %.not19 = icmp eq i16 %8, 0
  br i1 %.not19, label %9, label %.loopexit

9:                                                ; preds = %7
  %10 = load ptr, ptr %0, align 8
  %11 = getelementptr inbounds nuw i8, ptr %10, i64 12
  %12 = load i32, ptr %11, align 4
  %13 = icmp eq i32 %12, 4
  %14 = getelementptr inbounds nuw i8, ptr %0, i64 16
  %15 = load ptr, ptr %14, align 8
  %16 = getelementptr inbounds nuw i8, ptr %15, i64 6
  %17 = load i16, ptr %16, align 2
  br i1 %13, label %18, label %29

18:                                               ; preds = %9
  %19 = getelementptr inbounds i8, ptr %15, i64 18
  %20 = load i16, ptr %19, align 2
  %21 = getelementptr inbounds i8, ptr %15, i64 30
  %22 = load i16, ptr %21, align 2
  %23 = or i16 %20, %22
  %24 = getelementptr inbounds i8, ptr %15, i64 42
  %25 = load i16, ptr %24, align 2
  %26 = or i16 %23, %25
  %27 = or i16 %26, %17
  %28 = icmp eq i16 %27, 4
  br label %.loopexit

29:                                               ; preds = %9
  %30 = icmp eq i16 %17, 6
  br i1 %30, label %31, label %.loopexit

31:                                               ; preds = %29
  %32 = getelementptr inbounds i8, ptr %15, i64 18
  %33 = load i16, ptr %32, align 2
  %34 = icmp eq i16 %33, 6
  br i1 %34, label %35, label %.loopexit

35:                                               ; preds = %31
  %36 = getelementptr inbounds i8, ptr %15, i64 30
  %37 = load i16, ptr %36, align 2
  %38 = icmp eq i16 %37, 6
  br label %.loopexit

39:                                               ; preds = %5
  %40 = load ptr, ptr %0, align 8
  %41 = getelementptr inbounds nuw i8, ptr %40, i64 12
  %42 = load i32, ptr %41, align 4
  %43 = icmp eq i32 %42, 4
  %44 = select i1 %43, i32 4, i32 6
  %45 = lshr exact i32 %44, 1
  %46 = getelementptr inbounds nuw i8, ptr %40, i64 8
  %47 = load i32, ptr %46, align 8
  %48 = icmp sgt i32 %47, 0
  br i1 %48, label %.lr.ph, label %.loopexit

.lr.ph:                                           ; preds = %39
  %49 = getelementptr inbounds nuw i8, ptr %0, i64 16
  %50 = load ptr, ptr %49, align 8
  %wide.trip.count = zext nneg i32 %47 to i64
  br label %51

51:                                               ; preds = %.lr.ph, %65
  %indvars.iv = phi i64 [ 0, %.lr.ph ], [ %indvars.iv.next, %65 ]
  %52 = getelementptr inbounds %"struct.OpenSubdiv::v3_6_0::Bfr::FaceVertexSubset", ptr %50, i64 %indvars.iv
  %53 = load i16, ptr %52, align 4
  %54 = and i16 %53, 2
  %.not20 = icmp eq i16 %54, 0
  br i1 %.not20, label %58, label %55

55:                                               ; preds = %51
  %56 = getelementptr inbounds nuw i8, ptr %52, i64 6
  %57 = load i16, ptr %56, align 2
  %.not14 = icmp eq i16 %57, 1
  br i1 %.not14, label %65, label %.loopexit

58:                                               ; preds = %51
  %59 = and i16 %53, 1
  %.not21 = icmp eq i16 %59, 0
  %60 = getelementptr inbounds nuw i8, ptr %52, i64 6
  %61 = load i16, ptr %60, align 2
  %62 = sext i16 %61 to i32
  br i1 %.not21, label %64, label %63

63:                                               ; preds = %58
  %.not13 = icmp eq i32 %45, %62
  br i1 %.not13, label %65, label %.loopexit

64:                                               ; preds = %58
  %.not = icmp eq i32 %44, %62
  br i1 %.not, label %65, label %.loopexit

65:                                               ; preds = %55, %64, %63
  %indvars.iv.next = add nuw nsw i64 %indvars.iv, 1
  %exitcond.not = icmp eq i64 %indvars.iv.next, %wide.trip.count
  br i1 %exitcond.not, label %.loopexit, label %51, !llvm.loop !5

.loopexit:                                        ; preds = %55, %63, %64, %65, %39, %29, %31, %35, %7, %1, %18
  %.0 = phi i1 [ %28, %18 ], [ false, %1 ], [ false, %7 ], [ false, %31 ], [ false, %29 ], [ %38, %35 ], [ true, %39 ], [ false, %55 ], [ false, %63 ], [ false, %64 ], [ true, %65 ]
  ret i1 %.0
}